target datalayout = "e-m:e-p270:32:32-p271:32:32-p272:64:64-i64:64-i128:128-f80:128-n8:16:32:64-S128"
target triple = "x86_64-pc-linux-gnu"

%class.OffMeshConnectionTool = type <{ %struct.SampleTool, ptr, [3 x float], i8, i8, i8, i8 }>
%struct.SampleTool = type { ptr }
%class.Sample = type { ptr, ptr, ptr, ptr, ptr, i8, float, float, float, float, float, float, float, float, float, float, float, float, float, i32, i8, i8, i8, ptr, [9 x ptr], ptr, %class.SampleDebugDraw }
%class.SampleDebugDraw = type { %class.DebugDrawGL }
%class.DebugDrawGL = type { %struct.duDebugDraw }
%struct.duDebugDraw = type { ptr }

; Function Attrs: mustprogress nounwind uwtable
define linkonce_odr dso_local void @_ZN6Sample19setNavMeshDrawFlagsEh(ptr noundef nonnull align 8 dereferenceable(200) %0, i8 noundef zeroext %1) #0 comdat align 2 {
  %3 = alloca ptr, align 8
  %4 = alloca i8, align 1
  store ptr %0, ptr %3, align 8
  store i8 %1, ptr %4, align 1
  %5 = load ptr, ptr %3, align 8
  %6 = load i8, ptr %4, align 1
  %7 = getelementptr inbounds %class.Sample, ptr %5, i32 0, i32 5
  store i8 %6, ptr %7, align 8
  ret void
}

; Function Attrs: mustprogress nounwind uwtable
define linkonce_odr dso_local noundef zeroext i8 @_ZNK6Sample19getNavMeshDrawFlagsEv(ptr noundef nonnull align 8 dereferenceable(200) %0) #0 comdat align 2 {
  %2 = alloca ptr, align 8
  store ptr %0, ptr %2, align 8
  %3 = load ptr, ptr %2, align 8
  %4 = getelementptr inbounds %class.Sample, ptr %3, i32 0, i32 5
  %5 = load i8, ptr %4, align 8
  ret i8 %5
}

; Function Attrs: mustprogress uwtable
define dso_local void @_ZN21OffMeshConnectionTool4initEP6Sample(ptr noundef nonnull align 8 dereferenceable(31) %0, ptr noundef %1) unnamed_addr #4 align 2 {
  %3 = alloca ptr, align 8
  %4 = alloca ptr, align 8
  store ptr %0, ptr %3, align 8
  store ptr %1, ptr %4, align 8
  %5 = load ptr, ptr %3, align 8
  %6 = getelementptr inbounds %class.OffMeshConnectionTool, ptr %5, i32 0, i32 1
  %7 = load ptr, ptr %6, align 8
  %8 = load ptr, ptr %4, align 8
  %9 = icmp ne ptr %7, %8
  br i1 %9, label %10, label %24

10:                                               ; preds = %2
  %11 = load ptr, ptr %4, align 8
  %12 = getelementptr inbounds %class.OffMeshConnectionTool, ptr %5, i32 0, i32 1
  store ptr %11, ptr %12, align 8
  %13 = getelementptr inbounds %class.OffMeshConnectionTool, ptr %5, i32 0, i32 1
  %14 = load ptr, ptr %13, align 8
  %15 = call noundef zeroext i8 @_ZNK6Sample19getNavMeshDrawFlagsEv(ptr noundef nonnull align 8 dereferenceable(200) %14)
  %16 = getelementptr inbounds %class.OffMeshConnectionTool, ptr %5, i32 0, i32 5
  store i8 %15, ptr %16, align 2
  %17 = getelementptr inbounds %class.OffMeshConnectionTool, ptr %5, i32 0, i32 1
  %18 = load ptr, ptr %17, align 8
  %19 = getelementptr inbounds %class.OffMeshConnectionTool, ptr %5, i32 0, i32 5
  %20 = load i8, ptr %19, align 2
  %21 = zext i8 %20 to i32
  %22 = and i32 %21, -2
  %23 = trunc i32 %22 to i8
  call void @_ZN6Sample19setNavMeshDrawFlagsEh(ptr noundef nonnull align 8 dereferenceable(200) %18, i8 noundef zeroext %23)
  br label %24

24:                                               ; preds = %10, %2
  ret void
}