; Function Attrs: mustprogress nofree norecurse nosync nounwind willreturn memory(argmem: readwrite) uwtable
define dso_local void @_ZN21OffMeshConnectionTool4initEP6Sample(ptr nocapture noundef nonnull align 8 dereferenceable(31) %0, ptr noundef %1) unnamed_addr #4 align 2 {
  %3 = getelementptr inbounds i8, ptr %0, i64 8
  %4 = load ptr, ptr %3, align 8
  %.not = icmp eq ptr %4, %1
  br i1 %.not, label %10, label %5

5:                                                ; preds = %2
  store ptr %1, ptr %3, align 8
  %6 = getelementptr inbounds i8, ptr %1, i64 40
  %7 = load i8, ptr %6, align 8
  %8 = getelementptr inbounds i8, ptr %0, i64 30
  store i8 %7, ptr %8, align 2
  %9 = and i8 %7, -2
  store i8 %9, ptr %6, align 8
  br label %10

10:                                               ; preds = %5, %2
  ret void
}